; Function Attrs: mustprogress nounwind uwtable
define noundef ptr @_ZN7glslang13TIntermediate9addSymbolERKNS_13TIntermSymbolE(ptr nocapture nonnull readnone align 8 %0, ptr noundef nonnull align 8 dereferenceable(264) %1) local_unnamed_addr #0 align 2 {
  %3 = load ptr, ptr %1, align 8
  %4 = getelementptr inbounds i8, ptr %3, i64 384
  %5 = load ptr, ptr %4, align 8
  %6 = tail call noundef i64 %5(ptr noundef nonnull align 8 dereferenceable(264) %1) #17
  %7 = load ptr, ptr %1, align 8
  %8 = getelementptr inbounds i8, ptr %7, i64 400
  %9 = load ptr, ptr %8, align 8
  %10 = tail call noundef nonnull align 8 dereferenceable(40) ptr %9(ptr noundef nonnull align 8 dereferenceable(264) %1) #17
  %11 = load ptr, ptr %1, align 8
  %12 = getelementptr inbounds i8, ptr %11, i64 240
  %13 = load ptr, ptr %12, align 8
  %14 = tail call noundef nonnull align 8 dereferenceable(152) ptr %13(ptr noundef nonnull align 8 dereferenceable(184) %1) #17
  %15 = getelementptr inbounds i8, ptr %1, i64 256
  %16 = load ptr, ptr %15, align 8
  %17 = load ptr, ptr %1, align 8
  %18 = load ptr, ptr %17, align 8
  %19 = tail call noundef nonnull align 8 dereferenceable(24) ptr %18(ptr noundef nonnull align 8 dereferenceable(32) %1) #17
  %20 = tail call noundef nonnull align 8 dereferenceable(96) ptr @_ZN7glslang22GetThreadPoolAllocatorEv() #17
  %21 = tail call noundef ptr @_ZN7glslang14TPoolAllocator8allocateEm(ptr noundef nonnull align 8 dereferenceable(96) %20, i64 noundef 264) #17
  tail call void @_ZN7glslang13TIntermSymbolC2ExRKNSt7__cxx1112basic_stringIcSt11char_traitsIcENS_14pool_allocatorIcEEEERKNS_5TTypeE(ptr noundef nonnull align 8 dereferenceable(264) %21, i64 noundef %6, ptr noundef nonnull align 8 dereferenceable(40) %10, ptr noundef nonnull align 8 dereferenceable(152) %14)
  %22 = load ptr, ptr %21, align 8
  %23 = getelementptr inbounds i8, ptr %22, i64 8
  %24 = load ptr, ptr %23, align 8
  tail call void %24(ptr noundef nonnull align 8 dereferenceable(32) %21, ptr noundef nonnull align 8 dereferenceable(24) %19) #17
  %25 = getelementptr inbounds i8, ptr %1, i64 248
  %26 = load ptr, ptr %25, align 8
  %27 = getelementptr inbounds i8, ptr %21, i64 248
  store ptr %26, ptr %27, align 8
  %28 = getelementptr inbounds i8, ptr %21, i64 256
  store ptr %16, ptr %28, align 8
  ret ptr %21
}